; Function Attrs: mustprogress nounwind uwtable
define noundef range(i32 0, 648) i32 @_ZN7glslang12TScanContext20identifierOrReservedEb(ptr noundef nonnull align 8 dereferenceable(76) %0, i1 noundef zeroext %1) local_unnamed_addr #0 align 2 {
  %3 = getelementptr inbounds nuw i8, ptr %0, i64 8
  %4 = load ptr, ptr %3, align 8
  br i1 %1, label %5, label %24

5:                                                ; preds = %2
  %6 = getelementptr inbounds nuw i8, ptr %4, i64 232
  %7 = load ptr, ptr %6, align 8
  %8 = getelementptr inbounds nuw i8, ptr %7, i64 8
  %9 = load ptr, ptr %8, align 8
  %10 = load ptr, ptr %7, align 8
  %11 = ptrtoint ptr %9 to i64
  %12 = ptrtoint ptr %10 to i64
  %13 = sub i64 %11, %12
  %14 = lshr exact i64 %13, 3
  %15 = trunc i64 %14 to i32
  %16 = icmp slt i32 %15, 4
  br i1 %16, label %_ZN7glslang12TScanContext12reservedWordEv.exit, label %17

17:                                               ; preds = %5
  %18 = getelementptr inbounds nuw i8, ptr %0, i64 24
  %19 = getelementptr inbounds nuw i8, ptr %0, i64 64
  %20 = load ptr, ptr %19, align 8
  %21 = load ptr, ptr %4, align 8
  %22 = getelementptr inbounds nuw i8, ptr %21, i64 344
  %23 = load ptr, ptr %22, align 8
  tail call void (ptr, ptr, ptr, ptr, ptr, ...) %23(ptr noundef nonnull align 8 dereferenceable(1280) %4, ptr noundef nonnull align 8 dereferenceable(24) %18, ptr noundef nonnull @.str.501, ptr noundef %20, ptr noundef nonnull @.str.446, ptr noundef nonnull @.str.446) #15
  br label %_ZN7glslang12TScanContext12reservedWordEv.exit

24:                                               ; preds = %2
  %25 = getelementptr inbounds nuw i8, ptr %4, i64 8
  %26 = load i8, ptr %25, align 8
  %27 = trunc i8 %26 to i1
  br i1 %27, label %28, label %35

28:                                               ; preds = %24
  %29 = getelementptr inbounds nuw i8, ptr %0, i64 24
  %30 = getelementptr inbounds nuw i8, ptr %0, i64 64
  %31 = load ptr, ptr %30, align 8
  %32 = load ptr, ptr %4, align 8
  %33 = getelementptr inbounds nuw i8, ptr %32, i64 352
  %34 = load ptr, ptr %33, align 8
  tail call void (ptr, ptr, ptr, ptr, ptr, ...) %34(ptr noundef nonnull align 8 dereferenceable(1280) %4, ptr noundef nonnull align 8 dereferenceable(24) %29, ptr noundef nonnull @.str.502, ptr noundef %31, ptr noundef nonnull @.str.446) #15
  br label %35

35:                                               ; preds = %28, %24
  %36 = tail call noundef i32 @_ZN7glslang12TScanContext16identifierOrTypeEv(ptr noundef nonnull align 8 dereferenceable(76) %0)
  br label %_ZN7glslang12TScanContext12reservedWordEv.exit

_ZN7glslang12TScanContext12reservedWordEv.exit:   ; preds = %17, %5, %35
  %.0 = phi i32 [ %36, %35 ], [ 0, %5 ], [ 0, %17 ]
  ret i32 %.0
}